; ModuleID = '7/835.c'
source_filename = "7/835.c"
target datalayout = "e-m:e-p270:32:32-p271:32:32-p272:64:64-i64:64-f80:128-n8:16:32:64-S128"
target triple = "x86_64-pc-linux-gnu"

; Function Attrs: noinline nounwind uwtable
define dso_local i32 @main() #0 {
  %1 = alloca i32, align 4
  %2 = alloca [255 x i8], align 16
  %3 = alloca [255 x i8], align 16
  %4 = alloca [255 x i8], align 16
  %5 = alloca [255 x i8], align 16
  %6 = alloca i32, align 4
  %7 = alloca i32, align 4
  %8 = alloca i32, align 4
  %9 = alloca i32, align 4
  %10 = alloca i32, align 4
  %11 = alloca i32, align 4
  %12 = alloca i32, align 4
  store i32 0, i32* %1, align 4
  %13 = getelementptr inbounds [255 x i8], [255 x i8]* %2, i64 0, i64 0
  %14 = call i32 (i8*, ...) bitcast (i32 (...)* @gets to i32 (i8*, ...)*)(i8* %13)
  %15 = getelementptr inbounds [255 x i8], [255 x i8]* %3, i64 0, i64 0
  %16 = call i32 (i8*, ...) bitcast (i32 (...)* @gets to i32 (i8*, ...)*)(i8* %15)
  %17 = getelementptr inbounds [255 x i8], [255 x i8]* %4, i64 0, i64 0
  %18 = call i32 (i8*, ...) bitcast (i32 (...)* @gets to i32 (i8*, ...)*)(i8* %17)
  %19 = getelementptr inbounds [255 x i8], [255 x i8]* %2, i64 0, i64 0
  %20 = call i64 @strlen(i8* %19) #4
  %21 = trunc i64 %20 to i32
  store i32 %21, i32* %6, align 4
  %22 = getelementptr inbounds [255 x i8], [255 x i8]* %3, i64 0, i64 0
  %23 = call i64 @strlen(i8* %22) #4
  %24 = trunc i64 %23 to i32
  store i32 %24, i32* %7, align 4
  store i32 0, i32* %8, align 4
  store i32 0, i32* %9, align 4
  br label %25

25:                                               ; preds = %102, %0
  %26 = load i32, i32* %9, align 4
  %27 = load i32, i32* %6, align 4
  %28 = load i32, i32* %7, align 4
  %29 = sub nsw i32 %27, %28
  %30 = add nsw i32 %29, 1
  %31 = icmp slt i32 %26, %30
  br i1 %31, label %32, label %105

32:                                               ; preds = %25
  store i32 0, i32* %11, align 4
  store i32 0, i32* %10, align 4
  br label %33

33:                                               ; preds = %56, %32
  %34 = load i32, i32* %10, align 4
  %35 = load i32, i32* %7, align 4
  %36 = icmp slt i32 %34, %35
  br i1 %36, label %37, label %59

37:                                               ; preds = %33
  %38 = load i32, i32* %9, align 4
  %39 = load i32, i32* %10, align 4
  %40 = add nsw i32 %38, %39
  %41 = sext i32 %40 to i64
  %42 = getelementptr inbounds [255 x i8], [255 x i8]* %2, i64 0, i64 %41
  %43 = load i8, i8* %42, align 1
  %44 = sext i8 %43 to i32
  %45 = load i32, i32* %10, align 4
  %46 = sext i32 %45 to i64
  %47 = getelementptr inbounds [255 x i8], [255 x i8]* %3, i64 0, i64 %46
  %48 = load i8, i8* %47, align 1
  %49 = sext i8 %48 to i32
  %50 = icmp ne i32 %44, %49
  br i1 %50, label %51, label %52

51:                                               ; preds = %37
  br label %59

52:                                               ; preds = %37
  %53 = load i32, i32* %11, align 4
  %54 = add nsw i32 %53, 1
  store i32 %54, i32* %11, align 4
  br label %55

55:                                               ; preds = %52
  br label %56

56:                                               ; preds = %55
  %57 = load i32, i32* %10, align 4
  %58 = add nsw i32 %57, 1
  store i32 %58, i32* %10, align 4
  br label %33

59:                                               ; preds = %51, %33
  %60 = load i32, i32* %11, align 4
  %61 = load i32, i32* %7, align 4
  %62 = icmp eq i32 %60, %61
  br i1 %62, label %63, label %101

63:                                               ; preds = %59
  store i32 0, i32* %12, align 4
  br label %64

64:                                               ; preds = %72, %63
  %65 = load i32, i32* %9, align 4
  %66 = load i32, i32* %10, align 4
  %67 = add nsw i32 %65, %66
  %68 = load i32, i32* %12, align 4
  %69 = add nsw i32 %67, %68
  %70 = load i32, i32* %6, align 4
  %71 = icmp slt i32 %69, %70
  br i1 %71, label %72, label %86

72:                                               ; preds = %64
  %73 = load i32, i32* %9, align 4
  %74 = load i32, i32* %10, align 4
  %75 = add nsw i32 %73, %74
  %76 = load i32, i32* %12, align 4
  %77 = add nsw i32 %75, %76
  %78 = sext i32 %77 to i64
  %79 = getelementptr inbounds [255 x i8], [255 x i8]* %2, i64 0, i64 %78
  %80 = load i8, i8* %79, align 1
  %81 = load i32, i32* %12, align 4
  %82 = sext i32 %81 to i64
  %83 = getelementptr inbounds [255 x i8], [255 x i8]* %5, i64 0, i64 %82
  store i8 %80, i8* %83, align 1
  %84 = load i32, i32* %12, align 4
  %85 = add nsw i32 %84, 1
  store i32 %85, i32* %12, align 4
  br label %64

86:                                               ; preds = %64
  %87 = load i32, i32* %12, align 4
  %88 = sext i32 %87 to i64
  %89 = getelementptr inbounds [255 x i8], [255 x i8]* %5, i64 0, i64 %88
  store i8 0, i8* %89, align 1
  %90 = load i32, i32* %9, align 4
  %91 = sext i32 %90 to i64
  %92 = getelementptr inbounds [255 x i8], [255 x i8]* %2, i64 0, i64 %91
  store i8 0, i8* %92, align 1
  %93 = getelementptr inbounds [255 x i8], [255 x i8]* %2, i64 0, i64 0
  %94 = getelementptr inbounds [255 x i8], [255 x i8]* %4, i64 0, i64 0
  %95 = call i8* @strcat(i8* %93, i8* %94) #5
  %96 = getelementptr inbounds [255 x i8], [255 x i8]* %2, i64 0, i64 0
  %97 = getelementptr inbounds [255 x i8], [255 x i8]* %5, i64 0, i64 0
  %98 = call i8* @strcat(i8* %96, i8* %97) #5
  %99 = getelementptr inbounds [255 x i8], [255 x i8]* %2, i64 0, i64 0
  %100 = call i32 @puts(i8* %99)
  store i32 1, i32* %8, align 4
  br label %105

101:                                              ; preds = %59
  br label %102

102:                                              ; preds = %101
  %103 = load i32, i32* %9, align 4
  %104 = add nsw i32 %103, 1
  store i32 %104, i32* %9, align 4
  br label %25

105:                                              ; preds = %86, %25
  %106 = load i32, i32* %8, align 4
  %107 = icmp eq i32 %106, 0
  br i1 %107, label %108, label %111

108:                                              ; preds = %105
  %109 = getelementptr inbounds [255 x i8], [255 x i8]* %2, i64 0, i64 0
  %110 = call i32 @puts(i8* %109)
  br label %111

111:                                              ; preds = %108, %105
  ret i32 0
}

declare dso_local i32 @gets(...) #1

; Function Attrs: nounwind readonly
declare dso_local i64 @strlen(i8*) #2

; Function Attrs: nounwind
declare dso_local i8* @strcat(i8*, i8*) #3

declare dso_local i32 @puts(i8*) #1


!llvm.module.flags = !{!0}
!llvm.ident = !{!1}

!0 = !{i32 1, !"wchar_size", i32 4}
!1 = !{!"clang version 10.0.0-4ubuntu1 "}
